; Function Attrs: nounwind uwtable
define ptr @l_Lean_Meta_addImplicitTargets_collect___lambda__3___boxed(ptr noundef %0, ptr noundef %1, ptr noundef %2, ptr noundef %3, ptr noundef %4, ptr noundef %5, ptr noundef %6, ptr noundef %7, ptr noundef %8, ptr noundef %9, ptr noundef %10, ptr noundef %11, ptr noundef %12, ptr noundef %13) local_unnamed_addr #1 {
  %15 = tail call ptr @l_Lean_Meta_addImplicitTargets_collect___lambda__3(ptr noundef %0, ptr noundef %1, ptr noundef %2, ptr noundef %3, ptr noundef %4, ptr noundef %5, ptr noundef %6, ptr noundef %7, ptr poison, ptr noundef %9, ptr noundef %10, ptr noundef %11, ptr noundef %12, ptr noundef %13)
  %16 = ptrtoint ptr %8 to i64
  %17 = and i64 %16, 1
  %.not = icmp eq i64 %17, 0
  br i1 %.not, label %18, label %lean_dec.exit23

18:                                               ; preds = %14
  %19 = load i32, ptr %8, align 4, !tbaa !4
  %20 = icmp sgt i32 %19, 1
  br i1 %20, label %21, label %23, !prof !11

21:                                               ; preds = %18
  %22 = add nsw i32 %19, -1
  store i32 %22, ptr %8, align 4, !tbaa !4
  br label %lean_dec.exit23

23:                                               ; preds = %18
  %.not.i = icmp eq i32 %19, 0
  br i1 %.not.i, label %lean_dec.exit23, label %24

24:                                               ; preds = %23
  tail call void @lean_dec_ref_cold(ptr noundef nonnull %8) #5
  br label %lean_dec.exit23

lean_dec.exit23:                                  ; preds = %24, %23, %21, %14
  %25 = ptrtoint ptr %4 to i64
  %26 = and i64 %25, 1
  %.not32 = icmp eq i64 %26, 0
  br i1 %.not32, label %27, label %lean_dec.exit22

27:                                               ; preds = %lean_dec.exit23
  %28 = load i32, ptr %4, align 4, !tbaa !4
  %29 = icmp sgt i32 %28, 1
  br i1 %29, label %30, label %32, !prof !11

30:                                               ; preds = %27
  %31 = add nsw i32 %28, -1
  store i32 %31, ptr %4, align 4, !tbaa !4
  br label %lean_dec.exit22

32:                                               ; preds = %27
  %.not.i24 = icmp eq i32 %28, 0
  br i1 %.not.i24, label %lean_dec.exit22, label %33

33:                                               ; preds = %32
  tail call void @lean_dec_ref_cold(ptr noundef nonnull %4) #5
  br label %lean_dec.exit22

lean_dec.exit22:                                  ; preds = %33, %32, %30, %lean_dec.exit23
  %34 = ptrtoint ptr %3 to i64
  %35 = and i64 %34, 1
  %.not33 = icmp eq i64 %35, 0
  br i1 %.not33, label %36, label %lean_dec.exit21

36:                                               ; preds = %lean_dec.exit22
  %37 = load i32, ptr %3, align 4, !tbaa !4
  %38 = icmp sgt i32 %37, 1
  br i1 %38, label %39, label %41, !prof !11

39:                                               ; preds = %36
  %40 = add nsw i32 %37, -1
  store i32 %40, ptr %3, align 4, !tbaa !4
  br label %lean_dec.exit21

41:                                               ; preds = %36
  %.not.i26 = icmp eq i32 %37, 0
  br i1 %.not.i26, label %lean_dec.exit21, label %42

42:                                               ; preds = %41
  tail call void @lean_dec_ref_cold(ptr noundef nonnull %3) #5
  br label %lean_dec.exit21

lean_dec.exit21:                                  ; preds = %42, %41, %39, %lean_dec.exit22
  %43 = ptrtoint ptr %1 to i64
  %44 = and i64 %43, 1
  %.not34 = icmp eq i64 %44, 0
  br i1 %.not34, label %45, label %lean_dec.exit20

45:                                               ; preds = %lean_dec.exit21
  %46 = load i32, ptr %1, align 4, !tbaa !4
  %47 = icmp sgt i32 %46, 1
  br i1 %47, label %48, label %50, !prof !11

48:                                               ; preds = %45
  %49 = add nsw i32 %46, -1
  store i32 %49, ptr %1, align 4, !tbaa !4
  br label %lean_dec.exit20

50:                                               ; preds = %45
  %.not.i28 = icmp eq i32 %46, 0
  br i1 %.not.i28, label %lean_dec.exit20, label %51

51:                                               ; preds = %50
  tail call void @lean_dec_ref_cold(ptr noundef nonnull %1) #5
  br label %lean_dec.exit20

lean_dec.exit20:                                  ; preds = %51, %50, %48, %lean_dec.exit21
  %52 = ptrtoint ptr %0 to i64
  %53 = and i64 %52, 1
  %.not35 = icmp eq i64 %53, 0
  br i1 %.not35, label %54, label %lean_dec.exit

54:                                               ; preds = %lean_dec.exit20
  %55 = load i32, ptr %0, align 4, !tbaa !4
  %56 = icmp sgt i32 %55, 1
  br i1 %56, label %57, label %59, !prof !11

57:                                               ; preds = %54
  %58 = add nsw i32 %55, -1
  store i32 %58, ptr %0, align 4, !tbaa !4
  br label %lean_dec.exit

59:                                               ; preds = %54
  %.not.i30 = icmp eq i32 %55, 0
  br i1 %.not.i30, label %lean_dec.exit, label %60

60:                                               ; preds = %59
  tail call void @lean_dec_ref_cold(ptr noundef nonnull %0) #5
  br label %lean_dec.exit

lean_dec.exit:                                    ; preds = %60, %59, %57, %lean_dec.exit20
  ret ptr %15
}